; Function Attrs: mustprogress nounwind uwtable
define dso_local void @_ZN8FileLineD2Ev(ptr nocapture noundef nonnull align 8 dereferenceable(40) %0) unnamed_addr #6 align 2 personality ptr @__gxx_personality_v0 {
  %2 = getelementptr inbounds i8, ptr %0, i64 24
  %3 = load ptr, ptr %2, align 8
  %.not = icmp eq ptr %3, null
  br i1 %.not, label %9, label %4

4:                                                ; preds = %1
  %5 = getelementptr inbounds i8, ptr %3, i64 8
  %6 = atomicrmw sub ptr %5, i64 1 seq_cst, align 8
  %.not.i = icmp eq i64 %6, 1
  br i1 %.not.i, label %7, label %_ZN12VFileContent6refDecEv.exit

7:                                                ; preds = %4
  %8 = getelementptr inbounds i8, ptr %3, i64 16
  tail call void @_ZNSt5dequeINSt7__cxx1112basic_stringIcSt11char_traitsIcESaIcEEESaIS5_EED2Ev(ptr noundef nonnull align 8 dereferenceable(80) %8) #20
  tail call void @_ZdlPv(ptr noundef nonnull %3) #25
  br label %_ZN12VFileContent6refDecEv.exit

_ZN12VFileContent6refDecEv.exit:                  ; preds = %4, %7
  store ptr null, ptr %2, align 8
  br label %9

9:                                                ; preds = %_ZN12VFileContent6refDecEv.exit, %1
  ret void
}